; ModuleID = '36/631.c'
source_filename = "36/631.c"
target datalayout = "e-m:e-p270:32:32-p271:32:32-p272:64:64-i64:64-f80:128-n8:16:32:64-S128"
target triple = "x86_64-pc-linux-gnu"

@.str = private unnamed_addr constant [6 x i8] c"%s %s\00", align 1
@.str.1 = private unnamed_addr constant [3 x i8] c"NO\00", align 1
@.str.2 = private unnamed_addr constant [4 x i8] c"YES\00", align 1
@.str.3 = private unnamed_addr constant [2 x i8] c"\0A\00", align 1

; Function Attrs: noinline nounwind uwtable
define dso_local void @main() #0 {
  %1 = alloca [20 x i8], align 16
  %2 = alloca [20 x i8], align 16
  %3 = alloca i8, align 1
  %4 = alloca i32, align 4
  %5 = alloca i32, align 4
  %6 = alloca i32, align 4
  %7 = alloca i32, align 4
  %8 = alloca i32, align 4
  %9 = bitcast [20 x i8]* %1 to i8*
  call void @llvm.memset.p0i8.i64(i8* align 16 %9, i8 0, i64 20, i1 false)
  %10 = bitcast [20 x i8]* %2 to i8*
  call void @llvm.memset.p0i8.i64(i8* align 16 %10, i8 0, i64 20, i1 false)
  store i32 0, i32* %6, align 4
  store i32 0, i32* %7, align 4
  store i32 0, i32* %8, align 4
  %11 = getelementptr inbounds [20 x i8], [20 x i8]* %1, i64 0, i64 0
  %12 = getelementptr inbounds [20 x i8], [20 x i8]* %2, i64 0, i64 0
  %13 = call i32 (i8*, ...) @__isoc99_scanf(i8* getelementptr inbounds ([6 x i8], [6 x i8]* @.str, i64 0, i64 0), i8* %11, i8* %12)
  %14 = getelementptr inbounds [20 x i8], [20 x i8]* %1, i64 0, i64 0
  %15 = call i64 @strlen(i8* %14) #4
  %16 = trunc i64 %15 to i32
  store i32 %16, i32* %7, align 4
  %17 = getelementptr inbounds [20 x i8], [20 x i8]* %2, i64 0, i64 0
  %18 = call i64 @strlen(i8* %17) #4
  %19 = trunc i64 %18 to i32
  store i32 %19, i32* %8, align 4
  store i32 0, i32* %4, align 4
  br label %20

20:                                               ; preds = %69, %0
  %21 = load i32, i32* %4, align 4
  %22 = load i32, i32* %7, align 4
  %23 = sub nsw i32 %22, 1
  %24 = icmp slt i32 %21, %23
  br i1 %24, label %25, label %72

25:                                               ; preds = %20
  store i32 0, i32* %5, align 4
  br label %26

26:                                               ; preds = %65, %25
  %27 = load i32, i32* %5, align 4
  %28 = load i32, i32* %7, align 4
  %29 = sub nsw i32 %28, 1
  %30 = load i32, i32* %4, align 4
  %31 = sub nsw i32 %29, %30
  %32 = icmp slt i32 %27, %31
  br i1 %32, label %33, label %68

33:                                               ; preds = %26
  %34 = load i32, i32* %5, align 4
  %35 = sext i32 %34 to i64
  %36 = getelementptr inbounds [20 x i8], [20 x i8]* %1, i64 0, i64 %35
  %37 = load i8, i8* %36, align 1
  %38 = sext i8 %37 to i32
  %39 = load i32, i32* %5, align 4
  %40 = add nsw i32 %39, 1
  %41 = sext i32 %40 to i64
  %42 = getelementptr inbounds [20 x i8], [20 x i8]* %1, i64 0, i64 %41
  %43 = load i8, i8* %42, align 1
  %44 = sext i8 %43 to i32
  %45 = icmp slt i32 %38, %44
  br i1 %45, label %46, label %64

46:                                               ; preds = %33
  %47 = load i32, i32* %5, align 4
  %48 = sext i32 %47 to i64
  %49 = getelementptr inbounds [20 x i8], [20 x i8]* %1, i64 0, i64 %48
  %50 = load i8, i8* %49, align 1
  store i8 %50, i8* %3, align 1
  %51 = load i32, i32* %5, align 4
  %52 = add nsw i32 %51, 1
  %53 = sext i32 %52 to i64
  %54 = getelementptr inbounds [20 x i8], [20 x i8]* %1, i64 0, i64 %53
  %55 = load i8, i8* %54, align 1
  %56 = load i32, i32* %5, align 4
  %57 = sext i32 %56 to i64
  %58 = getelementptr inbounds [20 x i8], [20 x i8]* %1, i64 0, i64 %57
  store i8 %55, i8* %58, align 1
  %59 = load i8, i8* %3, align 1
  %60 = load i32, i32* %5, align 4
  %61 = add nsw i32 %60, 1
  %62 = sext i32 %61 to i64
  %63 = getelementptr inbounds [20 x i8], [20 x i8]* %1, i64 0, i64 %62
  store i8 %59, i8* %63, align 1
  br label %64

64:                                               ; preds = %46, %33
  br label %65

65:                                               ; preds = %64
  %66 = load i32, i32* %5, align 4
  %67 = add nsw i32 %66, 1
  store i32 %67, i32* %5, align 4
  br label %26

68:                                               ; preds = %26
  br label %69

69:                                               ; preds = %68
  %70 = load i32, i32* %4, align 4
  %71 = add nsw i32 %70, 1
  store i32 %71, i32* %4, align 4
  br label %20

72:                                               ; preds = %20
  store i32 0, i32* %4, align 4
  br label %73

73:                                               ; preds = %122, %72
  %74 = load i32, i32* %4, align 4
  %75 = load i32, i32* %8, align 4
  %76 = sub nsw i32 %75, 1
  %77 = icmp slt i32 %74, %76
  br i1 %77, label %78, label %125

78:                                               ; preds = %73
  store i32 0, i32* %5, align 4
  br label %79

79:                                               ; preds = %118, %78
  %80 = load i32, i32* %5, align 4
  %81 = load i32, i32* %8, align 4
  %82 = sub nsw i32 %81, 1
  %83 = load i32, i32* %4, align 4
  %84 = sub nsw i32 %82, %83
  %85 = icmp slt i32 %80, %84
  br i1 %85, label %86, label %121

86:                                               ; preds = %79
  %87 = load i32, i32* %5, align 4
  %88 = sext i32 %87 to i64
  %89 = getelementptr inbounds [20 x i8], [20 x i8]* %2, i64 0, i64 %88
  %90 = load i8, i8* %89, align 1
  %91 = sext i8 %90 to i32
  %92 = load i32, i32* %5, align 4
  %93 = add nsw i32 %92, 1
  %94 = sext i32 %93 to i64
  %95 = getelementptr inbounds [20 x i8], [20 x i8]* %2, i64 0, i64 %94
  %96 = load i8, i8* %95, align 1
  %97 = sext i8 %96 to i32
  %98 = icmp slt i32 %91, %97
  br i1 %98, label %99, label %117

99:                                               ; preds = %86
  %100 = load i32, i32* %5, align 4
  %101 = sext i32 %100 to i64
  %102 = getelementptr inbounds [20 x i8], [20 x i8]* %2, i64 0, i64 %101
  %103 = load i8, i8* %102, align 1
  store i8 %103, i8* %3, align 1
  %104 = load i32, i32* %5, align 4
  %105 = add nsw i32 %104, 1
  %106 = sext i32 %105 to i64
  %107 = getelementptr inbounds [20 x i8], [20 x i8]* %2, i64 0, i64 %106
  %108 = load i8, i8* %107, align 1
  %109 = load i32, i32* %5, align 4
  %110 = sext i32 %109 to i64
  %111 = getelementptr inbounds [20 x i8], [20 x i8]* %2, i64 0, i64 %110
  store i8 %108, i8* %111, align 1
  %112 = load i8, i8* %3, align 1
  %113 = load i32, i32* %5, align 4
  %114 = add nsw i32 %113, 1
  %115 = sext i32 %114 to i64
  %116 = getelementptr inbounds [20 x i8], [20 x i8]* %2, i64 0, i64 %115
  store i8 %112, i8* %116, align 1
  br label %117

117:                                              ; preds = %99, %86
  br label %118

118:                                              ; preds = %117
  %119 = load i32, i32* %5, align 4
  %120 = add nsw i32 %119, 1
  store i32 %120, i32* %5, align 4
  br label %79

121:                                              ; preds = %79
  br label %122

122:                                              ; preds = %121
  %123 = load i32, i32* %4, align 4
  %124 = add nsw i32 %123, 1
  store i32 %124, i32* %4, align 4
  br label %73

125:                                              ; preds = %73
  %126 = load i32, i32* %7, align 4
  %127 = load i32, i32* %8, align 4
  %128 = icmp eq i32 %126, %127
  br i1 %128, label %129, label %130

129:                                              ; preds = %125
  store i32 1, i32* %6, align 4
  br label %131

130:                                              ; preds = %125
  store i32 0, i32* %6, align 4
  br label %131

131:                                              ; preds = %130, %129
  store i32 1, i32* %6, align 4
  br i1 true, label %132, label %156

132:                                              ; preds = %131
  store i32 0, i32* %4, align 4
  br label %133

133:                                              ; preds = %152, %132
  %134 = load i32, i32* %4, align 4
  %135 = load i32, i32* %7, align 4
  %136 = icmp slt i32 %134, %135
  br i1 %136, label %137, label %155

137:                                              ; preds = %133
  %138 = load i32, i32* %4, align 4
  %139 = sext i32 %138 to i64
  %140 = getelementptr inbounds [20 x i8], [20 x i8]* %1, i64 0, i64 %139
  %141 = load i8, i8* %140, align 1
  %142 = sext i8 %141 to i32
  %143 = load i32, i32* %4, align 4
  %144 = sext i32 %143 to i64
  %145 = getelementptr inbounds [20 x i8], [20 x i8]* %2, i64 0, i64 %144
  %146 = load i8, i8* %145, align 1
  %147 = sext i8 %146 to i32
  %148 = icmp ne i32 %142, %147
  br i1 %148, label %149, label %150

149:                                              ; preds = %137
  store i32 0, i32* %6, align 4
  br label %155

150:                                              ; preds = %137
  store i32 1, i32* %6, align 4
  br label %151

151:                                              ; preds = %150
  br label %152

152:                                              ; preds = %151
  %153 = load i32, i32* %4, align 4
  %154 = add nsw i32 %153, 1
  store i32 %154, i32* %4, align 4
  br label %133

155:                                              ; preds = %149, %133
  br label %156

156:                                              ; preds = %155, %131
  %157 = load i32, i32* %6, align 4
  %158 = icmp eq i32 %157, 0
  br i1 %158, label %159, label %161

159:                                              ; preds = %156
  %160 = call i32 (i8*, ...) @printf(i8* getelementptr inbounds ([3 x i8], [3 x i8]* @.str.1, i64 0, i64 0))
  br label %163

161:                                              ; preds = %156
  %162 = call i32 (i8*, ...) @printf(i8* getelementptr inbounds ([4 x i8], [4 x i8]* @.str.2, i64 0, i64 0))
  br label %163

163:                                              ; preds = %161, %159
  %164 = call i32 (i8*, ...) @printf(i8* getelementptr inbounds ([2 x i8], [2 x i8]* @.str.3, i64 0, i64 0))
  ret void
}

; Function Attrs: argmemonly nounwind willreturn
declare void @llvm.memset.p0i8.i64(i8* nocapture writeonly, i8, i64, i1 immarg) #1

declare dso_local i32 @__isoc99_scanf(i8*, ...) #2

; Function Attrs: nounwind readonly
declare dso_local i64 @strlen(i8*) #3

declare dso_local i32 @printf(i8*, ...) #2


!llvm.module.flags = !{!0}
!llvm.ident = !{!1}

!0 = !{i32 1, !"wchar_size", i32 4}
!1 = !{!"clang version 10.0.0-4ubuntu1 "}
