; ModuleID = 'source-C-CXX/35/631.c'
source_filename = "source-C-CXX/35/631.c"
target datalayout = "e-m:e-p270:32:32-p271:32:32-p272:64:64-i64:64-f80:128-n8:16:32:64-S128"
target triple = "x86_64-pc-linux-gnu"

@.str = private unnamed_addr constant [6 x i8] c"%s %s\00", align 1
@.str.1 = private unnamed_addr constant [3 x i8] c"NO\00", align 1
@.str.2 = private unnamed_addr constant [4 x i8] c"YES\00", align 1

; Function Attrs: nofree nounwind sspstrong uwtable
define dso_local void @main() local_unnamed_addr #0 {
  %1 = alloca [20 x i8], align 16
  %2 = alloca [20 x i8], align 16
  %3 = getelementptr inbounds [20 x i8], [20 x i8]* %1, i64 0, i64 0
  call void @llvm.lifetime.start.p0i8(i64 20, i8* nonnull %3) #6
  call void @llvm.memset.p0i8.i64(i8* noundef nonnull align 16 dereferenceable(20) %3, i8 0, i64 20, i1 false)
  %4 = getelementptr inbounds [20 x i8], [20 x i8]* %2, i64 0, i64 0
  call void @llvm.lifetime.start.p0i8(i64 20, i8* nonnull %4) #6
  call void @llvm.memset.p0i8.i64(i8* noundef nonnull align 16 dereferenceable(20) %4, i8 0, i64 20, i1 false)
  %5 = call i32 (i8*, ...) @__isoc99_scanf(i8* getelementptr inbounds ([6 x i8], [6 x i8]* @.str, i64 0, i64 0), i8* nonnull %3, i8* nonnull %4)
  %6 = call i64 @strlen(i8* noundef nonnull %3) #7
  %7 = trunc i64 %6 to i32
  %8 = call i64 @strlen(i8* noundef nonnull %4) #7
  %9 = trunc i64 %8 to i32
  %10 = add i32 %7, -1
  %11 = icmp sgt i32 %7, 1
  br i1 %11, label %12, label %23

12:                                               ; preds = %0, %53
  %13 = phi i32 [ %54, %53 ], [ 0, %0 ]
  %14 = sub i32 %10, %13
  %15 = zext i32 %14 to i64
  %16 = icmp sgt i32 %10, %13
  br i1 %16, label %17, label %53

17:                                               ; preds = %12
  %18 = load i8, i8* %3, align 16, !tbaa !5
  %19 = and i64 %15, 1
  %20 = icmp eq i32 %14, 1
  br i1 %20, label %42, label %21

21:                                               ; preds = %17
  %22 = and i64 %15, 4294967294
  br label %26

23:                                               ; preds = %53, %0
  %24 = add i32 %9, -1
  %25 = icmp sgt i32 %9, 1
  br i1 %25, label %56, label %67

26:                                               ; preds = %117, %21
  %27 = phi i8 [ %18, %21 ], [ %118, %117 ]
  %28 = phi i64 [ 0, %21 ], [ %38, %117 ]
  %29 = phi i64 [ %22, %21 ], [ %119, %117 ]
  %30 = or i64 %28, 1
  %31 = getelementptr inbounds [20 x i8], [20 x i8]* %1, i64 0, i64 %30
  %32 = load i8, i8* %31, align 1, !tbaa !5
  %33 = icmp slt i8 %27, %32
  br i1 %33, label %34, label %36

34:                                               ; preds = %26
  %35 = getelementptr inbounds [20 x i8], [20 x i8]* %1, i64 0, i64 %28
  store i8 %32, i8* %35, align 2, !tbaa !5
  store i8 %27, i8* %31, align 1, !tbaa !5
  br label %36

36:                                               ; preds = %26, %34
  %37 = phi i8 [ %32, %26 ], [ %27, %34 ]
  %38 = add nuw nsw i64 %28, 2
  %39 = getelementptr inbounds [20 x i8], [20 x i8]* %1, i64 0, i64 %38
  %40 = load i8, i8* %39, align 2, !tbaa !5
  %41 = icmp slt i8 %37, %40
  br i1 %41, label %115, label %117

42:                                               ; preds = %117, %17
  %43 = phi i8 [ %18, %17 ], [ %118, %117 ]
  %44 = phi i64 [ 0, %17 ], [ %38, %117 ]
  %45 = icmp eq i64 %19, 0
  br i1 %45, label %53, label %46

46:                                               ; preds = %42
  %47 = add nuw nsw i64 %44, 1
  %48 = getelementptr inbounds [20 x i8], [20 x i8]* %1, i64 0, i64 %47
  %49 = load i8, i8* %48, align 1, !tbaa !5
  %50 = icmp slt i8 %43, %49
  br i1 %50, label %51, label %53

51:                                               ; preds = %46
  %52 = getelementptr inbounds [20 x i8], [20 x i8]* %1, i64 0, i64 %44
  store i8 %49, i8* %52, align 1, !tbaa !5
  store i8 %43, i8* %48, align 1, !tbaa !5
  br label %53

53:                                               ; preds = %42, %46, %51, %12
  %54 = add nuw nsw i32 %13, 1
  %55 = icmp eq i32 %54, %10
  br i1 %55, label %23, label %12, !llvm.loop !8

56:                                               ; preds = %23, %98
  %57 = phi i32 [ %99, %98 ], [ 0, %23 ]
  %58 = sub i32 %24, %57
  %59 = zext i32 %58 to i64
  %60 = icmp sgt i32 %24, %57
  br i1 %60, label %61, label %98

61:                                               ; preds = %56
  %62 = load i8, i8* %4, align 16, !tbaa !5
  %63 = and i64 %59, 1
  %64 = icmp eq i32 %58, 1
  br i1 %64, label %87, label %65

65:                                               ; preds = %61
  %66 = and i64 %59, 4294967294
  br label %71

67:                                               ; preds = %98, %23
  %68 = icmp sgt i32 %7, 0
  br i1 %68, label %69, label %111

69:                                               ; preds = %67
  %70 = and i64 %6, 4294967295
  br label %103

71:                                               ; preds = %123, %65
  %72 = phi i8 [ %62, %65 ], [ %124, %123 ]
  %73 = phi i64 [ 0, %65 ], [ %83, %123 ]
  %74 = phi i64 [ %66, %65 ], [ %125, %123 ]
  %75 = or i64 %73, 1
  %76 = getelementptr inbounds [20 x i8], [20 x i8]* %2, i64 0, i64 %75
  %77 = load i8, i8* %76, align 1, !tbaa !5
  %78 = icmp slt i8 %72, %77
  br i1 %78, label %79, label %81

79:                                               ; preds = %71
  %80 = getelementptr inbounds [20 x i8], [20 x i8]* %2, i64 0, i64 %73
  store i8 %77, i8* %80, align 2, !tbaa !5
  store i8 %72, i8* %76, align 1, !tbaa !5
  br label %81

81:                                               ; preds = %71, %79
  %82 = phi i8 [ %77, %71 ], [ %72, %79 ]
  %83 = add nuw nsw i64 %73, 2
  %84 = getelementptr inbounds [20 x i8], [20 x i8]* %2, i64 0, i64 %83
  %85 = load i8, i8* %84, align 2, !tbaa !5
  %86 = icmp slt i8 %82, %85
  br i1 %86, label %121, label %123

87:                                               ; preds = %123, %61
  %88 = phi i8 [ %62, %61 ], [ %124, %123 ]
  %89 = phi i64 [ 0, %61 ], [ %83, %123 ]
  %90 = icmp eq i64 %63, 0
  br i1 %90, label %98, label %91

91:                                               ; preds = %87
  %92 = add nuw nsw i64 %89, 1
  %93 = getelementptr inbounds [20 x i8], [20 x i8]* %2, i64 0, i64 %92
  %94 = load i8, i8* %93, align 1, !tbaa !5
  %95 = icmp slt i8 %88, %94
  br i1 %95, label %96, label %98

96:                                               ; preds = %91
  %97 = getelementptr inbounds [20 x i8], [20 x i8]* %2, i64 0, i64 %89
  store i8 %94, i8* %97, align 1, !tbaa !5
  store i8 %88, i8* %93, align 1, !tbaa !5
  br label %98

98:                                               ; preds = %87, %91, %96, %56
  %99 = add nuw nsw i32 %57, 1
  %100 = icmp eq i32 %99, %24
  br i1 %100, label %67, label %56, !llvm.loop !10

101:                                              ; preds = %103
  %102 = icmp eq i64 %110, %70
  br i1 %102, label %111, label %103, !llvm.loop !11

103:                                              ; preds = %69, %101
  %104 = phi i64 [ 0, %69 ], [ %110, %101 ]
  %105 = getelementptr inbounds [20 x i8], [20 x i8]* %1, i64 0, i64 %104
  %106 = load i8, i8* %105, align 1, !tbaa !5
  %107 = getelementptr inbounds [20 x i8], [20 x i8]* %2, i64 0, i64 %104
  %108 = load i8, i8* %107, align 1, !tbaa !5
  %109 = icmp eq i8 %106, %108
  %110 = add nuw nsw i64 %104, 1
  br i1 %109, label %101, label %111

111:                                              ; preds = %101, %103, %67
  %112 = phi i8* [ getelementptr inbounds ([4 x i8], [4 x i8]* @.str.2, i64 0, i64 0), %67 ], [ getelementptr inbounds ([3 x i8], [3 x i8]* @.str.1, i64 0, i64 0), %103 ], [ getelementptr inbounds ([4 x i8], [4 x i8]* @.str.2, i64 0, i64 0), %101 ]
  %113 = call i32 (i8*, ...) @printf(i8* nonnull dereferenceable(1) %112)
  %114 = call i32 @putchar(i32 10)
  call void @llvm.lifetime.end.p0i8(i64 20, i8* nonnull %4) #6
  call void @llvm.lifetime.end.p0i8(i64 20, i8* nonnull %3) #6
  ret void

115:                                              ; preds = %36
  %116 = getelementptr inbounds [20 x i8], [20 x i8]* %1, i64 0, i64 %30
  store i8 %40, i8* %116, align 1, !tbaa !5
  store i8 %37, i8* %39, align 2, !tbaa !5
  br label %117

117:                                              ; preds = %115, %36
  %118 = phi i8 [ %40, %36 ], [ %37, %115 ]
  %119 = add i64 %29, -2
  %120 = icmp eq i64 %119, 0
  br i1 %120, label %42, label %26, !llvm.loop !12

121:                                              ; preds = %81
  %122 = getelementptr inbounds [20 x i8], [20 x i8]* %2, i64 0, i64 %75
  store i8 %85, i8* %122, align 1, !tbaa !5
  store i8 %82, i8* %84, align 2, !tbaa !5
  br label %123

123:                                              ; preds = %121, %81
  %124 = phi i8 [ %85, %81 ], [ %82, %121 ]
  %125 = add i64 %74, -2
  %126 = icmp eq i64 %125, 0
  br i1 %126, label %87, label %71, !llvm.loop !13
}

; Function Attrs: argmemonly mustprogress nofree nosync nounwind willreturn
declare void @llvm.lifetime.start.p0i8(i64 immarg, i8* nocapture) #1

; Function Attrs: argmemonly mustprogress nofree nounwind willreturn writeonly
declare void @llvm.memset.p0i8.i64(i8* nocapture writeonly, i8, i64, i1 immarg) #2

; Function Attrs: nofree nounwind
declare noundef i32 @__isoc99_scanf(i8* nocapture noundef readonly, ...) local_unnamed_addr #3

; Function Attrs: argmemonly mustprogress nofree nounwind readonly willreturn
declare i64 @strlen(i8* nocapture) local_unnamed_addr #4

; Function Attrs: nofree nounwind
declare noundef i32 @printf(i8* nocapture noundef readonly, ...) local_unnamed_addr #3

; Function Attrs: argmemonly mustprogress nofree nosync nounwind willreturn
declare void @llvm.lifetime.end.p0i8(i64 immarg, i8* nocapture) #1

; Function Attrs: nofree nounwind
declare noundef i32 @putchar(i32 noundef) local_unnamed_addr #5


!llvm.module.flags = !{!0, !1, !2, !3}
!llvm.ident = !{!4}

!0 = !{i32 1, !"wchar_size", i32 4}
!1 = !{i32 7, !"PIC Level", i32 2}
!2 = !{i32 7, !"PIE Level", i32 2}
!3 = !{i32 7, !"uwtable", i32 1}
!4 = !{!"clang version 13.0.0"}
!5 = !{!6, !6, i64 0}
!6 = !{!"omnipotent char", !7, i64 0}
!7 = !{!"Simple C/C++ TBAA"}
!8 = distinct !{!8, !9}
!9 = !{!"llvm.loop.mustprogress"}
!10 = distinct !{!10, !9}
!11 = distinct !{!11, !9}
!12 = distinct !{!12, !9}
!13 = distinct !{!13, !9}
